target datalayout = "e-m:e-p270:32:32-p271:32:32-p272:64:64-i64:64-i128:128-f80:128-n8:16:32:64-S128"
target triple = "x86_64-pc-linux-gnu"

%struct.Map_ManStruct_t_ = type { ptr, i32, ptr, i32, ptr, i32, i32, ptr, ptr, ptr, ptr, ptr, ptr, ptr, ptr, i32, i32, i32, i32, float, float, float, float, i32, i32, float, i32, i32, i32, i32, ptr, [6 x [2 x i32]], [10 x [32 x i32]], [32 x i32], [32 x i32], ptr, ptr, ptr, ptr, ptr, ptr, i32, i32, i32, i32, i32, i32, i64, i64, i64, i64, i64, i64, i64, i64, i64, i64, i64 }
%struct.Map_TimeStruct_t_ = type { float, float, float }
%struct.Map_CutStruct_t_ = type { ptr, ptr, ptr, [6 x ptr], i32, i8, i8, i8, i8, [2 x %struct.Map_MatchStruct_t_] }
%struct.Map_MatchStruct_t_ = type { ptr, i32, i32, ptr, %struct.Map_TimeStruct_t_, float }
%struct.Map_CutTableStrutct_t = type { ptr, i32, ptr, i32, ptr, ptr, ptr }

; Function Attrs: nounwind uwtable
define internal void @Map_CutTableRestart(ptr noundef %0) #0 {
  %2 = alloca ptr, align 8
  %3 = alloca i32, align 4
  store ptr %0, ptr %2, align 8, !tbaa !55
  call void @llvm.lifetime.start.p0(i64 4, ptr %3) #9
  store i32 0, ptr %3, align 4, !tbaa !8
  br label %4

4:                                                ; preds = %23, %1
  %5 = load i32, ptr %3, align 4, !tbaa !8
  %6 = load ptr, ptr %2, align 8, !tbaa !55
  %7 = getelementptr inbounds nuw %struct.Map_CutTableStrutct_t, ptr %6, i32 0, i32 3
  %8 = load i32, ptr %7, align 8, !tbaa !85
  %9 = icmp slt i32 %5, %8
  br i1 %9, label %10, label %26

10:                                               ; preds = %4
  %11 = load ptr, ptr %2, align 8, !tbaa !55
  %12 = getelementptr inbounds nuw %struct.Map_CutTableStrutct_t, ptr %11, i32 0, i32 0
  %13 = load ptr, ptr %12, align 8, !tbaa !65
  %14 = load ptr, ptr %2, align 8, !tbaa !55
  %15 = getelementptr inbounds nuw %struct.Map_CutTableStrutct_t, ptr %14, i32 0, i32 2
  %16 = load ptr, ptr %15, align 8, !tbaa !66
  %17 = load i32, ptr %3, align 4, !tbaa !8
  %18 = sext i32 %17 to i64
  %19 = getelementptr inbounds i32, ptr %16, i64 %18
  %20 = load i32, ptr %19, align 4, !tbaa !8
  %21 = sext i32 %20 to i64
  %22 = getelementptr inbounds ptr, ptr %13, i64 %21
  store ptr null, ptr %22, align 8, !tbaa !30
  br label %23

23:                                               ; preds = %10
  %24 = load i32, ptr %3, align 4, !tbaa !8
  %25 = add nsw i32 %24, 1
  store i32 %25, ptr %3, align 4, !tbaa !8
  br label %4, !llvm.loop !86

26:                                               ; preds = %4
  %27 = load ptr, ptr %2, align 8, !tbaa !55
  %28 = getelementptr inbounds nuw %struct.Map_CutTableStrutct_t, ptr %27, i32 0, i32 3
  store i32 0, ptr %28, align 8, !tbaa !85
  call void @llvm.lifetime.end.p0(i64 4, ptr %3) #9
  ret void
}

; Function Attrs: nounwind uwtable
define ptr @Map_CutMergeLists2(ptr noundef %0, ptr noundef %1, ptr noundef %2, ptr noundef %3, i32 noundef %4, i32 noundef %5) #0 {
  %7 = alloca ptr, align 8
  %8 = alloca ptr, align 8
  %9 = alloca ptr, align 8
  %10 = alloca ptr, align 8
  %11 = alloca i32, align 4
  %12 = alloca i32, align 4
  %13 = alloca [6 x ptr], align 16
  %14 = alloca ptr, align 8
  %15 = alloca ptr, align 8
  %16 = alloca [7 x ptr], align 16
  %17 = alloca ptr, align 8
  %18 = alloca ptr, align 8
  %19 = alloca ptr, align 8
  %20 = alloca ptr, align 8
  %21 = alloca i32, align 4
  %22 = alloca i32, align 4
  %23 = alloca i32, align 4
  store ptr %0, ptr %7, align 8, !tbaa !3
  store ptr %1, ptr %8, align 8, !tbaa !55
  store ptr %2, ptr %9, align 8, !tbaa !30
  store ptr %3, ptr %10, align 8, !tbaa !30
  store i32 %4, ptr %11, align 4, !tbaa !8
  store i32 %5, ptr %12, align 4, !tbaa !8
  call void @llvm.lifetime.start.p0(i64 48, ptr %13) #9
  call void @llvm.lifetime.start.p0(i64 8, ptr %14) #9
  call void @llvm.lifetime.start.p0(i64 8, ptr %15) #9
  call void @llvm.lifetime.start.p0(i64 56, ptr %16) #9
  call void @llvm.memset.p0.i64(ptr align 16 %16, i8 0, i64 56, i1 false)
  call void @llvm.lifetime.start.p0(i64 8, ptr %17) #9
  call void @llvm.lifetime.start.p0(i64 8, ptr %18) #9
  call void @llvm.lifetime.start.p0(i64 8, ptr %19) #9
  call void @llvm.lifetime.start.p0(i64 8, ptr %20) #9
  call void @llvm.lifetime.start.p0(i64 4, ptr %21) #9
  call void @llvm.lifetime.start.p0(i64 4, ptr %22) #9
  call void @llvm.lifetime.start.p0(i64 4, ptr %23) #9
  %24 = load ptr, ptr %8, align 8, !tbaa !55
  call void @Map_CutTableRestart(ptr noundef %24)
  store i32 0, ptr %22, align 4, !tbaa !8
  %25 = load ptr, ptr %9, align 8, !tbaa !30
  store ptr %25, ptr %19, align 8, !tbaa !30
  br label %26

26:                                               ; preds = %98, %6
  %27 = load ptr, ptr %19, align 8, !tbaa !30
  %28 = icmp ne ptr %27, null
  br i1 %28, label %29, label %102

29:                                               ; preds = %26
  %30 = load ptr, ptr %10, align 8, !tbaa !30
  store ptr %30, ptr %20, align 8, !tbaa !30
  br label %31

31:                                               ; preds = %93, %29
  %32 = load ptr, ptr %20, align 8, !tbaa !30
  %33 = icmp ne ptr %32, null
  br i1 %33, label %34, label %97

34:                                               ; preds = %31
  %35 = load ptr, ptr %19, align 8, !tbaa !30
  %36 = load ptr, ptr %20, align 8, !tbaa !30
  %37 = getelementptr inbounds [6 x ptr], ptr %13, i64 0, i64 0
  %38 = load ptr, ptr %7, align 8, !tbaa !3
  %39 = getelementptr inbounds nuw %struct.Map_ManStruct_t_, ptr %38, i32 0, i32 15
  %40 = load i32, ptr %39, align 8, !tbaa !61
  %41 = call i32 @Map_CutMergeTwo(ptr noundef %35, ptr noundef %36, ptr noundef %37, i32 noundef %40)
  store i32 %41, ptr %21, align 4, !tbaa !8
  %42 = load i32, ptr %21, align 4, !tbaa !8
  %43 = icmp eq i32 %42, 0
  br i1 %43, label %44, label %45

44:                                               ; preds = %34
  br label %93

45:                                               ; preds = %34
  %46 = load ptr, ptr %7, align 8, !tbaa !3
  %47 = load ptr, ptr %8, align 8, !tbaa !55
  %48 = getelementptr inbounds [6 x ptr], ptr %13, i64 0, i64 0
  %49 = load i32, ptr %21, align 4, !tbaa !8
  %50 = call ptr @Map_CutTableConsider(ptr noundef %46, ptr noundef %47, ptr noundef %48, i32 noundef %49)
  store ptr %50, ptr %17, align 8, !tbaa !30
  %51 = load ptr, ptr %17, align 8, !tbaa !30
  %52 = icmp eq ptr %51, null
  br i1 %52, label %53, label %54

53:                                               ; preds = %45
  br label %93

54:                                               ; preds = %45
  %55 = load ptr, ptr %19, align 8, !tbaa !30
  %56 = ptrtoint ptr %55 to i64
  %57 = load i32, ptr %11, align 4, !tbaa !8
  %58 = sext i32 %57 to i64
  %59 = xor i64 %56, %58
  %60 = inttoptr i64 %59 to ptr
  %61 = load ptr, ptr %17, align 8, !tbaa !30
  %62 = getelementptr inbounds nuw %struct.Map_CutStruct_t_, ptr %61, i32 0, i32 1
  store ptr %60, ptr %62, align 8, !tbaa !78
  %63 = load ptr, ptr %20, align 8, !tbaa !30
  %64 = ptrtoint ptr %63 to i64
  %65 = load i32, ptr %12, align 4, !tbaa !8
  %66 = sext i32 %65 to i64
  %67 = xor i64 %64, %66
  %68 = inttoptr i64 %67 to ptr
  %69 = load ptr, ptr %17, align 8, !tbaa !30
  %70 = getelementptr inbounds nuw %struct.Map_CutStruct_t_, ptr %69, i32 0, i32 2
  store ptr %68, ptr %70, align 8, !tbaa !79
  %71 = load ptr, ptr %17, align 8, !tbaa !30
  %72 = getelementptr inbounds nuw %struct.Map_CutStruct_t_, ptr %71, i32 0, i32 5
  %73 = load i8, ptr %72, align 4, !tbaa !31
  %74 = sext i8 %73 to i32
  %75 = sext i32 %74 to i64
  %76 = getelementptr inbounds [7 x ptr], ptr %16, i64 0, i64 %75
  %77 = load ptr, ptr %76, align 8, !tbaa !30
  %78 = load ptr, ptr %17, align 8, !tbaa !30
  %79 = getelementptr inbounds nuw %struct.Map_CutStruct_t_, ptr %78, i32 0, i32 0
  store ptr %77, ptr %79, align 8, !tbaa !33
  %80 = load ptr, ptr %17, align 8, !tbaa !30
  %81 = load ptr, ptr %17, align 8, !tbaa !30
  %82 = getelementptr inbounds nuw %struct.Map_CutStruct_t_, ptr %81, i32 0, i32 5
  %83 = load i8, ptr %82, align 4, !tbaa !31
  %84 = sext i8 %83 to i32
  %85 = sext i32 %84 to i64
  %86 = getelementptr inbounds [7 x ptr], ptr %16, i64 0, i64 %85
  store ptr %80, ptr %86, align 8, !tbaa !30
  %87 = load i32, ptr %22, align 4, !tbaa !8
  %88 = add nsw i32 %87, 1
  store i32 %88, ptr %22, align 4, !tbaa !8
  %89 = load i32, ptr %22, align 4, !tbaa !8
  %90 = icmp eq i32 %89, 1000
  br i1 %90, label %91, label %92

91:                                               ; preds = %54
  br label %103

92:                                               ; preds = %54
  br label %93

93:                                               ; preds = %92, %53, %44
  %94 = load ptr, ptr %20, align 8, !tbaa !30
  %95 = getelementptr inbounds nuw %struct.Map_CutStruct_t_, ptr %94, i32 0, i32 0
  %96 = load ptr, ptr %95, align 8, !tbaa !33
  store ptr %96, ptr %20, align 8, !tbaa !30
  br label %31, !llvm.loop !80

97:                                               ; preds = %31
  br label %98

98:                                               ; preds = %97
  %99 = load ptr, ptr %19, align 8, !tbaa !30
  %100 = getelementptr inbounds nuw %struct.Map_CutStruct_t_, ptr %99, i32 0, i32 0
  %101 = load ptr, ptr %100, align 8, !tbaa !33
  store ptr %101, ptr %19, align 8, !tbaa !30
  br label %26, !llvm.loop !81

102:                                              ; preds = %26
  br label %103

103:                                              ; preds = %102, %91
  store ptr null, ptr %14, align 8, !tbaa !30
  store ptr %14, ptr %15, align 8, !tbaa !82
  store i32 1, ptr %23, align 4, !tbaa !8
  br label %104

104:                                              ; preds = %142, %103
  %105 = load i32, ptr %23, align 4, !tbaa !8
  %106 = load ptr, ptr %7, align 8, !tbaa !3
  %107 = getelementptr inbounds nuw %struct.Map_ManStruct_t_, ptr %106, i32 0, i32 15
  %108 = load i32, ptr %107, align 8, !tbaa !61
  %109 = icmp sle i32 %105, %108
  br i1 %109, label %110, label %145

110:                                              ; preds = %104
  %111 = load i32, ptr %23, align 4, !tbaa !8
  %112 = sext i32 %111 to i64
  %113 = getelementptr inbounds [7 x ptr], ptr %16, i64 0, i64 %112
  %114 = load ptr, ptr %113, align 8, !tbaa !30
  %115 = icmp eq ptr %114, null
  br i1 %115, label %116, label %117

116:                                              ; preds = %110
  br label %142

117:                                              ; preds = %110
  %118 = load i32, ptr %23, align 4, !tbaa !8
  %119 = sext i32 %118 to i64
  %120 = getelementptr inbounds [7 x ptr], ptr %16, i64 0, i64 %119
  %121 = load ptr, ptr %120, align 8, !tbaa !30
  store ptr %121, ptr %18, align 8, !tbaa !30
  %122 = load ptr, ptr %18, align 8, !tbaa !30
  %123 = getelementptr inbounds nuw %struct.Map_CutStruct_t_, ptr %122, i32 0, i32 0
  %124 = load ptr, ptr %123, align 8, !tbaa !33
  store ptr %124, ptr %17, align 8, !tbaa !30
  br label %125

125:                                              ; preds = %129, %117
  %126 = load ptr, ptr %17, align 8, !tbaa !30
  %127 = icmp ne ptr %126, null
  br i1 %127, label %128, label %134

128:                                              ; preds = %125
  br label %129

129:                                              ; preds = %128
  %130 = load ptr, ptr %17, align 8, !tbaa !30
  store ptr %130, ptr %18, align 8, !tbaa !30
  %131 = load ptr, ptr %17, align 8, !tbaa !30
  %132 = getelementptr inbounds nuw %struct.Map_CutStruct_t_, ptr %131, i32 0, i32 0
  %133 = load ptr, ptr %132, align 8, !tbaa !33
  store ptr %133, ptr %17, align 8, !tbaa !30
  br label %125, !llvm.loop !83

134:                                              ; preds = %125
  %135 = load i32, ptr %23, align 4, !tbaa !8
  %136 = sext i32 %135 to i64
  %137 = getelementptr inbounds [7 x ptr], ptr %16, i64 0, i64 %136
  %138 = load ptr, ptr %137, align 8, !tbaa !30
  %139 = load ptr, ptr %15, align 8, !tbaa !82
  store ptr %138, ptr %139, align 8, !tbaa !30
  %140 = load ptr, ptr %18, align 8, !tbaa !30
  %141 = getelementptr inbounds nuw %struct.Map_CutStruct_t_, ptr %140, i32 0, i32 0
  store ptr %141, ptr %15, align 8, !tbaa !82
  br label %142

142:                                              ; preds = %134, %116
  %143 = load i32, ptr %23, align 4, !tbaa !8
  %144 = add nsw i32 %143, 1
  store i32 %144, ptr %23, align 4, !tbaa !8
  br label %104, !llvm.loop !84

145:                                              ; preds = %104
  %146 = load ptr, ptr %15, align 8, !tbaa !82
  store ptr null, ptr %146, align 8, !tbaa !30
  %147 = load ptr, ptr %7, align 8, !tbaa !3
  %148 = load ptr, ptr %8, align 8, !tbaa !55
  %149 = load ptr, ptr %14, align 8, !tbaa !30
  %150 = call ptr @Map_CutSortCuts(ptr noundef %147, ptr noundef %148, ptr noundef %149)
  store ptr %150, ptr %14, align 8, !tbaa !30
  %151 = load ptr, ptr %14, align 8, !tbaa !30
  call void @llvm.lifetime.end.p0(i64 4, ptr %23) #9
  call void @llvm.lifetime.end.p0(i64 4, ptr %22) #9
  call void @llvm.lifetime.end.p0(i64 4, ptr %21) #9
  call void @llvm.lifetime.end.p0(i64 8, ptr %20) #9
  call void @llvm.lifetime.end.p0(i64 8, ptr %19) #9
  call void @llvm.lifetime.end.p0(i64 8, ptr %18) #9
  call void @llvm.lifetime.end.p0(i64 8, ptr %17) #9
  call void @llvm.lifetime.end.p0(i64 56, ptr %16) #9
  call void @llvm.lifetime.end.p0(i64 8, ptr %15) #9
  call void @llvm.lifetime.end.p0(i64 8, ptr %14) #9
  call void @llvm.lifetime.end.p0(i64 48, ptr %13) #9
  ret ptr %151
}