; Function Attrs: nounwind uwtable
define ptr @Map_CutMergeLists2(ptr noundef %0, ptr noundef captures(none) %1, ptr noundef %2, ptr noundef %3, i32 noundef %4, i32 noundef %5) local_unnamed_addr #2 {
  %7 = alloca [6 x ptr], align 16
  %8 = alloca ptr, align 8
  %9 = alloca [7 x ptr], align 16
  call void @llvm.lifetime.start.p0(i64 48, ptr nonnull %7) #18
  call void @llvm.lifetime.start.p0(i64 8, ptr nonnull %8)
  call void @llvm.lifetime.start.p0(i64 56, ptr nonnull %9) #18
  call void @llvm.memset.p0.i64(ptr noundef nonnull align 16 dereferenceable(56) %9, i8 0, i64 56, i1 false)
  %10 = getelementptr inbounds nuw i8, ptr %1, i64 24
  %11 = load i32, ptr %10, align 8, !tbaa !66
  %12 = icmp sgt i32 %11, 0
  br i1 %12, label %.lr.ph.i, label %Map_CutTableRestart.exit

.lr.ph.i:                                         ; preds = %6
  %13 = load ptr, ptr %1, align 8, !tbaa !56
  %14 = getelementptr inbounds nuw i8, ptr %1, i64 16
  %15 = load ptr, ptr %14, align 8, !tbaa !57
  %wide.trip.count.i = zext nneg i32 %11 to i64
  br label %16

16:                                               ; preds = %16, %.lr.ph.i
  %indvars.iv.i = phi i64 [ 0, %.lr.ph.i ], [ %indvars.iv.next.i, %16 ]
  %17 = getelementptr inbounds nuw i32, ptr %15, i64 %indvars.iv.i
  %18 = load i32, ptr %17, align 4, !tbaa !67
  %19 = sext i32 %18 to i64
  %20 = getelementptr inbounds ptr, ptr %13, i64 %19
  store ptr null, ptr %20, align 8, !tbaa !24
  %indvars.iv.next.i = add nuw nsw i64 %indvars.iv.i, 1
  %exitcond.not.i = icmp eq i64 %indvars.iv.next.i, %wide.trip.count.i
  br i1 %exitcond.not.i, label %Map_CutTableRestart.exit, label %16, !llvm.loop !68

Map_CutTableRestart.exit:                         ; preds = %16, %6
  store i32 0, ptr %10, align 8, !tbaa !66
  %.not62 = icmp eq ptr %2, null
  br i1 %.not62, label %.loopexit, label %.preheader56.lr.ph

.preheader56.lr.ph:                               ; preds = %Map_CutTableRestart.exit
  %.not5359 = icmp eq ptr %3, null
  %21 = getelementptr inbounds nuw i8, ptr %0, i64 112
  %22 = sext i32 %4 to i64
  %23 = sext i32 %5 to i64
  br i1 %.not5359, label %.loopexit, label %.preheader56

.preheader56:                                     ; preds = %.preheader56.lr.ph, %._crit_edge
  %.04164 = phi i32 [ %.2, %._crit_edge ], [ 0, %.preheader56.lr.ph ]
  %.04563 = phi ptr [ %49, %._crit_edge ], [ %2, %.preheader56.lr.ph ]
  %24 = ptrtoint ptr %.04563 to i64
  %25 = xor i64 %24, %22
  %26 = inttoptr i64 %25 to ptr
  br label %27

27:                                               ; preds = %.preheader56, %47
  %.161 = phi i32 [ %.04164, %.preheader56 ], [ %.2, %47 ]
  %.04460 = phi ptr [ %3, %.preheader56 ], [ %48, %47 ]
  %28 = load i32, ptr %21, align 8, !tbaa !69
  %29 = call fastcc i32 @Map_CutMergeTwo(ptr noundef nonnull %.04563, ptr noundef nonnull %.04460, ptr noundef %7, i32 noundef %28)
  %30 = icmp eq i32 %29, 0
  br i1 %30, label %47, label %31

31:                                               ; preds = %27
  %32 = call fastcc ptr @Map_CutTableConsider(ptr noundef nonnull %0, ptr noundef %1, ptr noundef %7, i32 noundef %29)
  %33 = icmp eq ptr %32, null
  br i1 %33, label %47, label %34

34:                                               ; preds = %31
  %35 = getelementptr inbounds nuw i8, ptr %32, i64 8
  store ptr %26, ptr %35, align 8, !tbaa !70
  %36 = ptrtoint ptr %.04460 to i64
  %37 = xor i64 %36, %23
  %38 = inttoptr i64 %37 to ptr
  %39 = getelementptr inbounds nuw i8, ptr %32, i64 16
  store ptr %38, ptr %39, align 8, !tbaa !71
  %40 = getelementptr inbounds nuw i8, ptr %32, i64 76
  %41 = load i8, ptr %40, align 4, !tbaa !26
  %42 = sext i8 %41 to i64
  %43 = getelementptr inbounds [7 x ptr], ptr %9, i64 0, i64 %42
  %44 = load ptr, ptr %43, align 8, !tbaa !24
  store ptr %44, ptr %32, align 8, !tbaa !64
  store ptr %32, ptr %43, align 8, !tbaa !24
  %45 = add nsw i32 %.161, 1
  %46 = icmp eq i32 %45, 1000
  br i1 %46, label %.loopexit, label %47

47:                                               ; preds = %34, %31, %27
  %.2 = phi i32 [ %.161, %27 ], [ %.161, %31 ], [ %45, %34 ]
  %48 = load ptr, ptr %.04460, align 8, !tbaa !64
  %.not53 = icmp eq ptr %48, null
  br i1 %.not53, label %._crit_edge, label %27, !llvm.loop !98

._crit_edge:                                      ; preds = %47
  %49 = load ptr, ptr %.04563, align 8, !tbaa !64
  %.not = icmp eq ptr %49, null
  br i1 %.not, label %.loopexit, label %.preheader56, !llvm.loop !99

.loopexit:                                        ; preds = %._crit_edge, %34, %.preheader56.lr.ph, %Map_CutTableRestart.exit
  store ptr null, ptr %8, align 8, !tbaa !24
  %50 = getelementptr inbounds nuw i8, ptr %0, i64 112
  %51 = load i32, ptr %50, align 8, !tbaa !69
  %.not5465 = icmp slt i32 %51, 1
  br i1 %.not5465, label %._crit_edge69, label %.lr.ph.preheader

.lr.ph.preheader:                                 ; preds = %.loopexit
  %52 = add nuw i32 %51, 1
  %wide.trip.count = zext i32 %52 to i64
  br label %.lr.ph

.lr.ph:                                           ; preds = %.lr.ph.preheader, %57
  %indvars.iv = phi i64 [ 1, %.lr.ph.preheader ], [ %indvars.iv.next, %57 ]
  %.04266 = phi ptr [ %8, %.lr.ph.preheader ], [ %.143, %57 ]
  %53 = getelementptr inbounds nuw [7 x ptr], ptr %9, i64 0, i64 %indvars.iv
  %54 = load ptr, ptr %53, align 8, !tbaa !24
  %55 = icmp eq ptr %54, null
  br i1 %55, label %57, label %.preheader

.preheader:                                       ; preds = %.lr.ph, %.preheader
  %.046 = phi ptr [ %.047, %.preheader ], [ %54, %.lr.ph ]
  %.047 = load ptr, ptr %.046, align 8, !tbaa !64
  %.not55 = icmp eq ptr %.047, null
  br i1 %.not55, label %56, label %.preheader, !llvm.loop !100

56:                                               ; preds = %.preheader
  store ptr %54, ptr %.04266, align 8, !tbaa !24
  br label %57

57:                                               ; preds = %.lr.ph, %56
  %.143 = phi ptr [ %.04266, %.lr.ph ], [ %.046, %56 ]
  %indvars.iv.next = add nuw nsw i64 %indvars.iv, 1
  %exitcond.not = icmp eq i64 %indvars.iv.next, %wide.trip.count
  br i1 %exitcond.not, label %._crit_edge69, label %.lr.ph, !llvm.loop !101

._crit_edge69:                                    ; preds = %57, %.loopexit
  %.042.lcssa = phi ptr [ %8, %.loopexit ], [ %.143, %57 ]
  store ptr null, ptr %.042.lcssa, align 8, !tbaa !24
  %.0..0..0..0. = load ptr, ptr %8, align 8, !tbaa !24
  %58 = tail call fastcc ptr @Map_CutSortCuts(ptr noundef nonnull %0, ptr noundef %1, ptr noundef %.0..0..0..0.)
  call void @llvm.lifetime.end.p0(i64 56, ptr nonnull %9) #18
  call void @llvm.lifetime.end.p0(i64 8, ptr nonnull %8)
  call void @llvm.lifetime.end.p0(i64 48, ptr nonnull %7) #18
  ret ptr %58
}